ccopy_reg
_reconstructor
p1
(cxmppd.modules.db_fake
DictWatch
p2
c__builtin__
dict
p3
(dp4
S'127.0.0.1'
p5
g1
(g2
g3
(dp6
S'acc'
p7
g1
(g2
g3
(dp8
S'name'
p9
S'ACC'
p10
sS'groups'
p11
g1
(g2
g3
(dtRp12
sS'roster'
p13
g1
(g2
g3
(dtRp14
sS'anon_allow'
p15
S'yes'
p16
sS'password'
p17
S'DEzgionl'
p18
sS'storage'
p19
g1
(g2
g3
(dtRp20
stRp21
sS'df'
p22
g1
(g2
g3
(dp23
g9
S'DF'
p24
sg11
g1
(g2
g3
(dtRp25
sg13
g1
(g2
g3
(dtRp26
sg15
g16
sg17
S'NZEOZEqB'
p27
sg19
g1
(g2
g3
(dtRp28
stRp29
sS'ams'
p30
g1
(g2
g3
(dp31
g9
S'AMS'
p32
sg11
g1
(g2
g3
(dtRp33
sg13
g1
(g2
g3
(dp34
S'agent@127.0.0.1'
p35
(dp36
S'state'
p37
S''
sS'subscription'
p38
S'from'
p39
sstRp40
sg15
g16
sg17
S'vhLCxikq'
p41
sg19
g1
(g2
g3
(dtRp42
stRp43
sVagent
p44
g1
(g2
g3
(dp45
S'name'
p46
Vagent
p47
sS'groups'
p48
g1
(g2
g3
(dtRp49
sS'roster'
p50
g1
(g2
g3
(dp51
Vams.127.0.0.1
p52
(dp53
S'state'
p54
S''
sS'subscription'
p55
S'to'
p56
sstRp57
sS'anon_allow'
p58
S'yes'
p59
sS'password'
p60
Vsecret
p61
sS'storage'
p62
g1
(g2
g3
(dtRp63
stRp64
sS'__ir__'
p65
(dp66
g15
g16
sg17
S'test'
p67
sg19
(dp68
S'karma'
p69
(dp70
S'down'
p71
I307200
sS'tot_up'
p72
I0
sS'tot_down'
p73
I0
sS'up'
p74
I307200307200307200
sS'last_time'
p75
F0
sssg11
(dp76
sg13
(dp77
sstRp78
stRp79
.